target datalayout = "e-m:e-p270:32:32-p271:32:32-p272:64:64-i64:64-i128:128-f80:128-n8:16:32:64-S128"
target triple = "x86_64-pc-linux-gnu"

%struct._zval_struct = type { %union._zend_value, %union.anon, %union.anon.2 }
%union._zend_value = type { i64 }
%union.anon = type { i32 }
%union.anon.2 = type { i32 }
%struct._zend_refcounted_h = type { i32, %union.anon.3 }
%union.anon.3 = type { i32 }
%struct.php_sxe_object = type { ptr, ptr, ptr, ptr, %struct.anon.8, %struct._zval_struct, ptr, %struct._zend_object }
%struct.anon.8 = type { ptr, ptr, i32, i32, %struct._zval_struct }
%struct._zend_object = type { %struct._zend_refcounted_h, i32, ptr, ptr, ptr, [1 x %struct._zval_struct] }

; Function Attrs: nounwind uwtable
define internal ptr @php_sxe_fetch_object(ptr noundef %0) #0 {
  %2 = alloca ptr, align 8
  store ptr %0, ptr %2, align 8
  %3 = load ptr, ptr %2, align 8
  %4 = getelementptr inbounds i8, ptr %3, i64 -96
  ret ptr %4
}

; Function Attrs: nounwind uwtable
define internal void @sxe_object_free_storage(ptr noundef %0) #0 {
  %2 = alloca ptr, align 8
  %3 = alloca ptr, align 8
  %4 = alloca ptr, align 8
  %5 = alloca ptr, align 8
  store ptr %0, ptr %4, align 8
  %6 = load ptr, ptr %4, align 8
  %7 = call ptr @php_sxe_fetch_object(ptr noundef %6)
  store ptr %7, ptr %5, align 8
  %8 = load ptr, ptr %5, align 8
  %9 = getelementptr inbounds %struct.php_sxe_object, ptr %8, i32 0, i32 7
  call void @zend_object_std_dtor(ptr noundef %9)
  %10 = load ptr, ptr %5, align 8
  %11 = getelementptr inbounds %struct.php_sxe_object, ptr %10, i32 0, i32 4
  %12 = getelementptr inbounds %struct.anon.8, ptr %11, i32 0, i32 4
  store ptr %12, ptr %2, align 8
  %13 = load ptr, ptr %2, align 8
  %14 = getelementptr inbounds %struct._zval_struct, ptr %13, i32 0, i32 1
  %15 = load i8, ptr %14, align 8
  %16 = zext i8 %15 to i32
  %17 = icmp eq i32 %16, 0
  br i1 %17, label %28, label %18

18:                                               ; preds = %1
  %19 = load ptr, ptr %5, align 8
  %20 = getelementptr inbounds %struct.php_sxe_object, ptr %19, i32 0, i32 4
  %21 = getelementptr inbounds %struct.anon.8, ptr %20, i32 0, i32 4
  call void @zval_ptr_dtor(ptr noundef %21)
  br label %22

22:                                               ; preds = %18
  %23 = load ptr, ptr %5, align 8
  %24 = getelementptr inbounds %struct.php_sxe_object, ptr %23, i32 0, i32 4
  %25 = getelementptr inbounds %struct.anon.8, ptr %24, i32 0, i32 4
  %26 = getelementptr inbounds %struct._zval_struct, ptr %25, i32 0, i32 1
  store i32 0, ptr %26, align 8
  br label %27

27:                                               ; preds = %22
  br label %28

28:                                               ; preds = %27, %1
  %29 = load ptr, ptr %5, align 8
  %30 = getelementptr inbounds %struct.php_sxe_object, ptr %29, i32 0, i32 4
  %31 = getelementptr inbounds %struct.anon.8, ptr %30, i32 0, i32 0
  %32 = load ptr, ptr %31, align 8
  %33 = icmp ne ptr %32, null
  br i1 %33, label %34, label %42

34:                                               ; preds = %28
  %35 = load ptr, ptr %5, align 8
  %36 = getelementptr inbounds %struct.php_sxe_object, ptr %35, i32 0, i32 4
  %37 = getelementptr inbounds %struct.anon.8, ptr %36, i32 0, i32 0
  %38 = load ptr, ptr %37, align 8
  call void @_efree(ptr noundef %38)
  %39 = load ptr, ptr %5, align 8
  %40 = getelementptr inbounds %struct.php_sxe_object, ptr %39, i32 0, i32 4
  %41 = getelementptr inbounds %struct.anon.8, ptr %40, i32 0, i32 0
  store ptr null, ptr %41, align 8
  br label %42

42:                                               ; preds = %34, %28
  %43 = load ptr, ptr %5, align 8
  %44 = getelementptr inbounds %struct.php_sxe_object, ptr %43, i32 0, i32 4
  %45 = getelementptr inbounds %struct.anon.8, ptr %44, i32 0, i32 1
  %46 = load ptr, ptr %45, align 8
  %47 = icmp ne ptr %46, null
  br i1 %47, label %48, label %56

48:                                               ; preds = %42
  %49 = load ptr, ptr %5, align 8
  %50 = getelementptr inbounds %struct.php_sxe_object, ptr %49, i32 0, i32 4
  %51 = getelementptr inbounds %struct.anon.8, ptr %50, i32 0, i32 1
  %52 = load ptr, ptr %51, align 8
  call void @_efree(ptr noundef %52)
  %53 = load ptr, ptr %5, align 8
  %54 = getelementptr inbounds %struct.php_sxe_object, ptr %53, i32 0, i32 4
  %55 = getelementptr inbounds %struct.anon.8, ptr %54, i32 0, i32 1
  store ptr null, ptr %55, align 8
  br label %56

56:                                               ; preds = %48, %42
  %57 = load ptr, ptr %5, align 8
  %58 = getelementptr inbounds %struct.php_sxe_object, ptr %57, i32 0, i32 5
  store ptr %58, ptr %3, align 8
  %59 = load ptr, ptr %3, align 8
  %60 = getelementptr inbounds %struct._zval_struct, ptr %59, i32 0, i32 1
  %61 = load i8, ptr %60, align 8
  %62 = zext i8 %61 to i32
  %63 = icmp eq i32 %62, 0
  br i1 %63, label %72, label %64

64:                                               ; preds = %56
  %65 = load ptr, ptr %5, align 8
  %66 = getelementptr inbounds %struct.php_sxe_object, ptr %65, i32 0, i32 5
  call void @zval_ptr_dtor(ptr noundef %66)
  br label %67

67:                                               ; preds = %64
  %68 = load ptr, ptr %5, align 8
  %69 = getelementptr inbounds %struct.php_sxe_object, ptr %68, i32 0, i32 5
  %70 = getelementptr inbounds %struct._zval_struct, ptr %69, i32 0, i32 1
  store i32 0, ptr %70, align 8
  br label %71

71:                                               ; preds = %67
  br label %72

72:                                               ; preds = %71, %56
  %73 = load ptr, ptr %5, align 8
  call void @php_libxml_node_decrement_resource(ptr noundef %73)
  %74 = load ptr, ptr %5, align 8
  %75 = getelementptr inbounds %struct.php_sxe_object, ptr %74, i32 0, i32 3
  %76 = load ptr, ptr %75, align 8
  %77 = icmp ne ptr %76, null
  br i1 %77, label %78, label %82

78:                                               ; preds = %72
  %79 = load ptr, ptr %5, align 8
  %80 = getelementptr inbounds %struct.php_sxe_object, ptr %79, i32 0, i32 3
  %81 = load ptr, ptr %80, align 8
  call void @xmlXPathFreeContext(ptr noundef %81)
  br label %82

82:                                               ; preds = %78, %72
  %83 = load ptr, ptr %5, align 8
  %84 = getelementptr inbounds %struct.php_sxe_object, ptr %83, i32 0, i32 2
  %85 = load ptr, ptr %84, align 8
  %86 = icmp ne ptr %85, null
  br i1 %86, label %87, label %96

87:                                               ; preds = %82
  %88 = load ptr, ptr %5, align 8
  %89 = getelementptr inbounds %struct.php_sxe_object, ptr %88, i32 0, i32 2
  %90 = load ptr, ptr %89, align 8
  call void @zend_hash_destroy(ptr noundef %90)
  br label %91

91:                                               ; preds = %87
  %92 = load ptr, ptr %5, align 8
  %93 = getelementptr inbounds %struct.php_sxe_object, ptr %92, i32 0, i32 2
  %94 = load ptr, ptr %93, align 8
  call void @_efree_56(ptr noundef %94)
  br label %95

95:                                               ; preds = %91
  br label %96

96:                                               ; preds = %95, %82
  ret void
}