; Function Attrs: nounwind uwtable
define internal void @sxe_object_free_storage(ptr noundef %0) #1 {
  %2 = getelementptr inbounds i8, ptr %0, i64 -96
  tail call void @zend_object_std_dtor(ptr noundef nonnull %0) #14
  %3 = getelementptr inbounds i8, ptr %0, i64 -64
  %4 = getelementptr inbounds i8, ptr %0, i64 -32
  %5 = load i8, ptr %4, align 8
  %6 = icmp eq i8 %5, 0
  br i1 %6, label %9, label %7

7:                                                ; preds = %1
  %8 = getelementptr inbounds i8, ptr %0, i64 -40
  tail call void @zval_ptr_dtor(ptr noundef nonnull %8) #14
  store i32 0, ptr %4, align 8
  br label %9

9:                                                ; preds = %7, %1
  %10 = load ptr, ptr %3, align 8
  %.not = icmp eq ptr %10, null
  br i1 %.not, label %12, label %11

11:                                               ; preds = %9
  tail call void @_efree(ptr noundef nonnull %10) #14
  store ptr null, ptr %3, align 8
  br label %12

12:                                               ; preds = %11, %9
  %13 = getelementptr inbounds i8, ptr %0, i64 -56
  %14 = load ptr, ptr %13, align 8
  %.not25 = icmp eq ptr %14, null
  br i1 %.not25, label %16, label %15

15:                                               ; preds = %12
  tail call void @_efree(ptr noundef nonnull %14) #14
  store ptr null, ptr %13, align 8
  br label %16

16:                                               ; preds = %15, %12
  %17 = getelementptr inbounds i8, ptr %0, i64 -16
  %18 = load i8, ptr %17, align 8
  %19 = icmp eq i8 %18, 0
  br i1 %19, label %22, label %20

20:                                               ; preds = %16
  %21 = getelementptr inbounds i8, ptr %0, i64 -24
  tail call void @zval_ptr_dtor(ptr noundef nonnull %21) #14
  store i32 0, ptr %17, align 8
  br label %22

22:                                               ; preds = %20, %16
  tail call void @php_libxml_node_decrement_resource(ptr noundef nonnull %2) #14
  %23 = getelementptr inbounds i8, ptr %0, i64 -72
  %24 = load ptr, ptr %23, align 8
  %.not26 = icmp eq ptr %24, null
  br i1 %.not26, label %26, label %25

25:                                               ; preds = %22
  tail call void @xmlXPathFreeContext(ptr noundef nonnull %24) #14
  br label %26

26:                                               ; preds = %25, %22
  %27 = getelementptr inbounds i8, ptr %0, i64 -80
  %28 = load ptr, ptr %27, align 8
  %.not27 = icmp eq ptr %28, null
  br i1 %.not27, label %31, label %29

29:                                               ; preds = %26
  tail call void @zend_hash_destroy(ptr noundef nonnull %28) #14
  %30 = load ptr, ptr %27, align 8
  tail call void @_efree_56(ptr noundef %30) #14
  br label %31

31:                                               ; preds = %29, %26
  ret void
}